target datalayout = "e-m:e-p270:32:32-p271:32:32-p272:64:64-i64:64-i128:128-f80:128-n8:16:32:64-S128"
target triple = "x86_64-pc-linux-gnu"

%struct._address = type { i32, i32, ptr, ptr }
%struct._tcp_segment_key = type { %struct._address, %struct._address, i32, i32, i32, i32 }

; Function Attrs: nounwind uwtable
define internal i32 @addresses_equal(ptr noundef %0, ptr noundef %1) #0 {
  %3 = alloca i32, align 4
  %4 = alloca ptr, align 8
  %5 = alloca ptr, align 8
  store ptr %0, ptr %4, align 8
  store ptr %1, ptr %5, align 8
  %6 = load ptr, ptr %4, align 8
  %7 = getelementptr inbounds %struct._address, ptr %6, i32 0, i32 0
  %8 = load i32, ptr %7, align 8
  %9 = load ptr, ptr %5, align 8
  %10 = getelementptr inbounds %struct._address, ptr %9, i32 0, i32 0
  %11 = load i32, ptr %10, align 8
  %12 = icmp eq i32 %8, %11
  br i1 %12, label %13, label %40

13:                                               ; preds = %2
  %14 = load ptr, ptr %4, align 8
  %15 = getelementptr inbounds %struct._address, ptr %14, i32 0, i32 1
  %16 = load i32, ptr %15, align 4
  %17 = load ptr, ptr %5, align 8
  %18 = getelementptr inbounds %struct._address, ptr %17, i32 0, i32 1
  %19 = load i32, ptr %18, align 4
  %20 = icmp eq i32 %16, %19
  br i1 %20, label %21, label %40

21:                                               ; preds = %13
  %22 = load ptr, ptr %4, align 8
  %23 = getelementptr inbounds %struct._address, ptr %22, i32 0, i32 1
  %24 = load i32, ptr %23, align 4
  %25 = icmp eq i32 %24, 0
  br i1 %25, label %39, label %26

26:                                               ; preds = %21
  %27 = load ptr, ptr %4, align 8
  %28 = getelementptr inbounds %struct._address, ptr %27, i32 0, i32 2
  %29 = load ptr, ptr %28, align 8
  %30 = load ptr, ptr %5, align 8
  %31 = getelementptr inbounds %struct._address, ptr %30, i32 0, i32 2
  %32 = load ptr, ptr %31, align 8
  %33 = load ptr, ptr %4, align 8
  %34 = getelementptr inbounds %struct._address, ptr %33, i32 0, i32 1
  %35 = load i32, ptr %34, align 4
  %36 = sext i32 %35 to i64
  %37 = call i32 @memcmp(ptr noundef %29, ptr noundef %32, i64 noundef %36) #11
  %38 = icmp eq i32 %37, 0
  br i1 %38, label %39, label %40

39:                                               ; preds = %26, %21
  store i32 1, ptr %3, align 4
  br label %41

40:                                               ; preds = %26, %13, %2
  store i32 0, ptr %3, align 4
  br label %41

41:                                               ; preds = %40, %39
  %42 = load i32, ptr %3, align 4
  ret i32 %42
}

; Function Attrs: nounwind uwtable
define internal i32 @tcp_segment_equal(ptr noundef %0, ptr noundef %1) #0 {
  %3 = alloca ptr, align 8
  %4 = alloca ptr, align 8
  %5 = alloca ptr, align 8
  %6 = alloca ptr, align 8
  store ptr %0, ptr %3, align 8
  store ptr %1, ptr %4, align 8
  %7 = load ptr, ptr %3, align 8
  store ptr %7, ptr %5, align 8
  %8 = load ptr, ptr %4, align 8
  store ptr %8, ptr %6, align 8
  %9 = load ptr, ptr %5, align 8
  %10 = getelementptr inbounds %struct._tcp_segment_key, ptr %9, i32 0, i32 4
  %11 = load i32, ptr %10, align 8
  %12 = load ptr, ptr %6, align 8
  %13 = getelementptr inbounds %struct._tcp_segment_key, ptr %12, i32 0, i32 4
  %14 = load i32, ptr %13, align 8
  %15 = icmp eq i32 %11, %14
  br i1 %15, label %16, label %54

16:                                               ; preds = %2
  %17 = load ptr, ptr %5, align 8
  %18 = getelementptr inbounds %struct._tcp_segment_key, ptr %17, i32 0, i32 0
  %19 = load ptr, ptr %6, align 8
  %20 = getelementptr inbounds %struct._tcp_segment_key, ptr %19, i32 0, i32 0
  %21 = call i32 @addresses_equal(ptr noundef %18, ptr noundef %20)
  %22 = icmp ne i32 %21, 0
  br i1 %22, label %23, label %54

23:                                               ; preds = %16
  %24 = load ptr, ptr %5, align 8
  %25 = getelementptr inbounds %struct._tcp_segment_key, ptr %24, i32 0, i32 1
  %26 = load ptr, ptr %6, align 8
  %27 = getelementptr inbounds %struct._tcp_segment_key, ptr %26, i32 0, i32 1
  %28 = call i32 @addresses_equal(ptr noundef %25, ptr noundef %27)
  %29 = icmp ne i32 %28, 0
  br i1 %29, label %30, label %54

30:                                               ; preds = %23
  %31 = load ptr, ptr %5, align 8
  %32 = getelementptr inbounds %struct._tcp_segment_key, ptr %31, i32 0, i32 2
  %33 = load i32, ptr %32, align 8
  %34 = load ptr, ptr %6, align 8
  %35 = getelementptr inbounds %struct._tcp_segment_key, ptr %34, i32 0, i32 2
  %36 = load i32, ptr %35, align 8
  %37 = icmp eq i32 %33, %36
  br i1 %37, label %38, label %54

38:                                               ; preds = %30
  %39 = load ptr, ptr %5, align 8
  %40 = getelementptr inbounds %struct._tcp_segment_key, ptr %39, i32 0, i32 3
  %41 = load i32, ptr %40, align 4
  %42 = load ptr, ptr %6, align 8
  %43 = getelementptr inbounds %struct._tcp_segment_key, ptr %42, i32 0, i32 3
  %44 = load i32, ptr %43, align 4
  %45 = icmp eq i32 %41, %44
  br i1 %45, label %46, label %54

46:                                               ; preds = %38
  %47 = load ptr, ptr %5, align 8
  %48 = getelementptr inbounds %struct._tcp_segment_key, ptr %47, i32 0, i32 5
  %49 = load i32, ptr %48, align 4
  %50 = load ptr, ptr %6, align 8
  %51 = getelementptr inbounds %struct._tcp_segment_key, ptr %50, i32 0, i32 5
  %52 = load i32, ptr %51, align 4
  %53 = icmp eq i32 %49, %52
  br label %54

54:                                               ; preds = %46, %38, %30, %23, %16, %2
  %55 = phi i1 [ false, %38 ], [ false, %30 ], [ false, %23 ], [ false, %16 ], [ false, %2 ], [ %53, %46 ]
  %56 = zext i1 %55 to i32
  ret i32 %56
}