; Function Attrs: mustprogress nofree nounwind willreturn memory(read, inaccessiblemem: none) uwtable
define internal range(i32 0, 2) i32 @tcp_segment_equal(ptr noundef readonly captures(none) %0, ptr noundef readonly captures(none) %1) #5 {
  %3 = getelementptr inbounds nuw i8, ptr %0, i64 56
  %4 = load i32, ptr %3, align 8
  %5 = getelementptr inbounds nuw i8, ptr %1, i64 56
  %6 = load i32, ptr %5, align 8
  %7 = icmp eq i32 %4, %6
  br i1 %7, label %8, label %addresses_equal.exit

8:                                                ; preds = %2
  %9 = load i32, ptr %0, align 8
  %10 = load i32, ptr %1, align 8
  %11 = icmp eq i32 %9, %10
  br i1 %11, label %12, label %addresses_equal.exit

12:                                               ; preds = %8
  %13 = getelementptr inbounds nuw i8, ptr %0, i64 4
  %14 = load i32, ptr %13, align 4
  %15 = getelementptr inbounds nuw i8, ptr %1, i64 4
  %16 = load i32, ptr %15, align 4
  %17 = icmp eq i32 %14, %16
  br i1 %17, label %18, label %addresses_equal.exit

18:                                               ; preds = %12
  %19 = icmp eq i32 %14, 0
  br i1 %19, label %27, label %20

20:                                               ; preds = %18
  %21 = getelementptr inbounds nuw i8, ptr %0, i64 8
  %22 = load ptr, ptr %21, align 8
  %23 = getelementptr inbounds nuw i8, ptr %1, i64 8
  %24 = load ptr, ptr %23, align 8
  %25 = sext i32 %14 to i64
  %bcmp.i = tail call i32 @bcmp(ptr %22, ptr %24, i64 %25)
  %26 = icmp eq i32 %bcmp.i, 0
  br i1 %26, label %27, label %addresses_equal.exit

27:                                               ; preds = %20, %18
  %28 = getelementptr inbounds nuw i8, ptr %0, i64 24
  %29 = getelementptr inbounds nuw i8, ptr %1, i64 24
  %30 = load i32, ptr %28, align 8
  %31 = load i32, ptr %29, align 8
  %32 = icmp eq i32 %30, %31
  br i1 %32, label %33, label %addresses_equal.exit

33:                                               ; preds = %27
  %34 = getelementptr inbounds nuw i8, ptr %0, i64 28
  %35 = load i32, ptr %34, align 4
  %36 = getelementptr inbounds nuw i8, ptr %1, i64 28
  %37 = load i32, ptr %36, align 4
  %38 = icmp eq i32 %35, %37
  br i1 %38, label %39, label %addresses_equal.exit

39:                                               ; preds = %33
  %40 = icmp eq i32 %35, 0
  br i1 %40, label %48, label %41

41:                                               ; preds = %39
  %42 = getelementptr inbounds nuw i8, ptr %0, i64 32
  %43 = load ptr, ptr %42, align 8
  %44 = getelementptr inbounds nuw i8, ptr %1, i64 32
  %45 = load ptr, ptr %44, align 8
  %46 = sext i32 %35 to i64
  %bcmp.i16 = tail call i32 @bcmp(ptr %43, ptr %45, i64 %46)
  %47 = icmp eq i32 %bcmp.i16, 0
  br i1 %47, label %48, label %addresses_equal.exit

48:                                               ; preds = %41, %39
  %49 = getelementptr inbounds nuw i8, ptr %0, i64 48
  %50 = load i32, ptr %49, align 8
  %51 = getelementptr inbounds nuw i8, ptr %1, i64 48
  %52 = load i32, ptr %51, align 8
  %53 = icmp eq i32 %50, %52
  br i1 %53, label %54, label %addresses_equal.exit

54:                                               ; preds = %48
  %55 = getelementptr inbounds nuw i8, ptr %0, i64 52
  %56 = load i32, ptr %55, align 4
  %57 = getelementptr inbounds nuw i8, ptr %1, i64 52
  %58 = load i32, ptr %57, align 4
  %59 = icmp eq i32 %56, %58
  br i1 %59, label %60, label %addresses_equal.exit

60:                                               ; preds = %54
  %61 = getelementptr inbounds nuw i8, ptr %0, i64 60
  %62 = load i32, ptr %61, align 4
  %63 = getelementptr inbounds nuw i8, ptr %1, i64 60
  %64 = load i32, ptr %63, align 4
  %65 = icmp eq i32 %62, %64
  %66 = zext i1 %65 to i32
  br label %addresses_equal.exit

addresses_equal.exit:                             ; preds = %41, %33, %27, %20, %12, %8, %60, %54, %48, %2
  %67 = phi i32 [ 0, %54 ], [ 0, %48 ], [ 0, %2 ], [ %66, %60 ], [ 0, %8 ], [ 0, %12 ], [ 0, %20 ], [ 0, %27 ], [ 0, %33 ], [ 0, %41 ]
  ret i32 %67
}